; Function Attrs: cold mustprogress uwtable
define noundef zeroext i1 @_Z14grpc_log_errorPKcN4absl12lts_202407226StatusES0_i(ptr noundef %0, ptr noundef %1, ptr noundef %2, i32 noundef %3) local_unnamed_addr #9 personality ptr @__gxx_personality_v0 {
  %5 = alloca ptr, align 8
  %6 = alloca %"class.absl::lts_20240722::log_internal::LogMessage", align 8
  %7 = alloca %"class.std::__cxx11::basic_string", align 8
  store ptr %0, ptr %5, align 8, !tbaa !51
  call void @llvm.lifetime.start.p0(i64 16, ptr nonnull %6) #22
  call void @_ZN4absl12lts_2024072212log_internal10LogMessageC1EPKciNS2_8ErrorTagE(ptr noundef nonnull align 8 dereferenceable(16) %6, ptr noundef nonnull @.str.5, i32 noundef 222) #24
  %8 = call noundef i64 @strlen(ptr noundef nonnull dereferenceable(1) %2) #22
  %9 = invoke noundef nonnull align 8 dereferenceable(16) ptr @_ZN4absl12lts_2024072212log_internal10LogMessage10AtLocationESt17basic_string_viewIcSt11char_traitsIcEEi(ptr noundef nonnull align 8 dereferenceable(16) %6, i64 %8, ptr nonnull %2, i32 noundef %3)
          to label %10 unwind label %24

10:                                               ; preds = %4
  %11 = invoke noundef nonnull align 8 dereferenceable(16) ptr @_ZN4absl12lts_2024072212log_internal10LogMessagelsIPKcTnNSt9enable_ifIXntsr4absl16HasAbslStringifyIT_EE5valueEiE4typeELi0EEERS2_RKS7_(ptr noundef nonnull align 8 dereferenceable(16) %9, ptr noundef nonnull align 8 dereferenceable(8) %5)
          to label %12 unwind label %24

12:                                               ; preds = %10
  invoke void @_ZN4absl12lts_2024072212log_internal10LogMessage19CopyToEncodedBufferILNS2_10StringTypeE0EEEvSt17basic_string_viewIcSt11char_traitsIcEE(ptr noundef nonnull align 8 dereferenceable(16) %11, i64 2, ptr nonnull @.str)
          to label %_ZN4absl12lts_2024072212log_internal10LogMessagelsILi3EEERS2_RAT__Kc.exit unwind label %24

_ZN4absl12lts_2024072212log_internal10LogMessagelsILi3EEERS2_RAT__Kc.exit: ; preds = %12
  call void @llvm.lifetime.start.p0(i64 32, ptr nonnull %7) #22
  invoke void @_ZN9grpc_core14StatusToStringB5cxx11ERKN4absl12lts_202407226StatusE(ptr dead_on_unwind nonnull writable sret(%"class.std::__cxx11::basic_string") align 8 %7, ptr noundef nonnull align 8 dereferenceable(8) %1)
          to label %13 unwind label %26

13:                                               ; preds = %_ZN4absl12lts_2024072212log_internal10LogMessagelsILi3EEERS2_RAT__Kc.exit
  %14 = invoke noundef nonnull align 8 dereferenceable(16) ptr @_ZN4absl12lts_2024072212log_internal10LogMessagelsERKNSt7__cxx1112basic_stringIcSt11char_traitsIcESaIcEEE(ptr noundef nonnull align 8 dereferenceable(16) %11, ptr noundef nonnull align 8 dereferenceable(32) %7)
          to label %15 unwind label %28

15:                                               ; preds = %13
  %16 = load ptr, ptr %7, align 8, !tbaa !17
  %17 = getelementptr inbounds nuw i8, ptr %7, i64 16
  %18 = icmp eq ptr %16, %17
  br i1 %18, label %_ZNKSt7__cxx1112basic_stringIcSt11char_traitsIcESaIcEE11_M_is_localEv.exit.thread.i.i, label %_ZNKSt7__cxx1112basic_stringIcSt11char_traitsIcESaIcEE11_M_is_localEv.exit.i.i

_ZNKSt7__cxx1112basic_stringIcSt11char_traitsIcESaIcEE11_M_is_localEv.exit.thread.i.i: ; preds = %15
  %19 = getelementptr inbounds nuw i8, ptr %7, i64 8
  %20 = load i64, ptr %19, align 8, !tbaa !21
  %21 = icmp ult i64 %20, 16
  call void @llvm.assume(i1 %21)
  br label %_ZNSt7__cxx1112basic_stringIcSt11char_traitsIcESaIcEED2Ev.exit

_ZNKSt7__cxx1112basic_stringIcSt11char_traitsIcESaIcEE11_M_is_localEv.exit.i.i: ; preds = %15
  %22 = load i64, ptr %17, align 8, !tbaa !28
  %23 = add i64 %22, 1
  call void @_ZdlPvm(ptr noundef %16, i64 noundef %23) #21
  br label %_ZNSt7__cxx1112basic_stringIcSt11char_traitsIcESaIcEED2Ev.exit

_ZNSt7__cxx1112basic_stringIcSt11char_traitsIcESaIcEED2Ev.exit: ; preds = %_ZNKSt7__cxx1112basic_stringIcSt11char_traitsIcESaIcEE11_M_is_localEv.exit.thread.i.i, %_ZNKSt7__cxx1112basic_stringIcSt11char_traitsIcESaIcEE11_M_is_localEv.exit.i.i
  call void @llvm.lifetime.end.p0(i64 32, ptr nonnull %7) #22
  call void @_ZN4absl12lts_2024072212log_internal10LogMessageD1Ev(ptr noundef nonnull align 8 dereferenceable(16) %6) #25
  call void @llvm.lifetime.end.p0(i64 16, ptr nonnull %6) #22
  ret i1 false

24:                                               ; preds = %12, %10, %4
  %25 = landingpad { ptr, i32 }
          cleanup
  br label %38

26:                                               ; preds = %_ZN4absl12lts_2024072212log_internal10LogMessagelsILi3EEERS2_RAT__Kc.exit
  %27 = landingpad { ptr, i32 }
          cleanup
  br label %_ZNSt7__cxx1112basic_stringIcSt11char_traitsIcESaIcEED2Ev.exit9

28:                                               ; preds = %13
  %29 = landingpad { ptr, i32 }
          cleanup
  %30 = load ptr, ptr %7, align 8, !tbaa !17
  %31 = getelementptr inbounds nuw i8, ptr %7, i64 16
  %32 = icmp eq ptr %30, %31
  br i1 %32, label %_ZNKSt7__cxx1112basic_stringIcSt11char_traitsIcESaIcEE11_M_is_localEv.exit.thread.i.i8, label %_ZNKSt7__cxx1112basic_stringIcSt11char_traitsIcESaIcEE11_M_is_localEv.exit.i.i7

_ZNKSt7__cxx1112basic_stringIcSt11char_traitsIcESaIcEE11_M_is_localEv.exit.thread.i.i8: ; preds = %28
  %33 = getelementptr inbounds nuw i8, ptr %7, i64 8
  %34 = load i64, ptr %33, align 8, !tbaa !21
  %35 = icmp ult i64 %34, 16
  call void @llvm.assume(i1 %35)
  br label %_ZNSt7__cxx1112basic_stringIcSt11char_traitsIcESaIcEED2Ev.exit9

_ZNKSt7__cxx1112basic_stringIcSt11char_traitsIcESaIcEE11_M_is_localEv.exit.i.i7: ; preds = %28
  %36 = load i64, ptr %31, align 8, !tbaa !28
  %37 = add i64 %36, 1
  call void @_ZdlPvm(ptr noundef %30, i64 noundef %37) #21
  br label %_ZNSt7__cxx1112basic_stringIcSt11char_traitsIcESaIcEED2Ev.exit9

_ZNSt7__cxx1112basic_stringIcSt11char_traitsIcESaIcEED2Ev.exit9: ; preds = %_ZNKSt7__cxx1112basic_stringIcSt11char_traitsIcESaIcEE11_M_is_localEv.exit.i.i7, %_ZNKSt7__cxx1112basic_stringIcSt11char_traitsIcESaIcEE11_M_is_localEv.exit.thread.i.i8, %26
  %.pn = phi { ptr, i32 } [ %27, %26 ], [ %29, %_ZNKSt7__cxx1112basic_stringIcSt11char_traitsIcESaIcEE11_M_is_localEv.exit.thread.i.i8 ], [ %29, %_ZNKSt7__cxx1112basic_stringIcSt11char_traitsIcESaIcEE11_M_is_localEv.exit.i.i7 ]
  call void @llvm.lifetime.end.p0(i64 32, ptr nonnull %7) #22
  br label %38

38:                                               ; preds = %_ZNSt7__cxx1112basic_stringIcSt11char_traitsIcESaIcEED2Ev.exit9, %24
  %.pn.pn = phi { ptr, i32 } [ %.pn, %_ZNSt7__cxx1112basic_stringIcSt11char_traitsIcESaIcEED2Ev.exit9 ], [ %25, %24 ]
  call void @_ZN4absl12lts_2024072212log_internal10LogMessageD1Ev(ptr noundef nonnull align 8 dereferenceable(16) %6) #25
  call void @llvm.lifetime.end.p0(i64 16, ptr nonnull %6) #22
  resume { ptr, i32 } %.pn.pn
}